; Function Attrs: nounwind uwtable
define internal ptr @func_get_annotations(ptr noundef captures(none) %0, ptr readnone captures(none) %1) #0 {
  %3 = getelementptr inbounds nuw i8, ptr %0, i64 112
  %4 = load ptr, ptr %3, align 8, !tbaa !143
  %5 = icmp eq ptr %4, null
  br i1 %5, label %6, label %15

6:                                                ; preds = %2
  %7 = getelementptr inbounds nuw i8, ptr %0, i64 120
  %8 = load ptr, ptr %7, align 8, !tbaa !144
  %9 = icmp eq ptr %8, null
  br i1 %9, label %12, label %10

10:                                               ; preds = %6
  %11 = tail call i32 @PyCallable_Check(ptr noundef nonnull %8) #8
  %.not = icmp eq i32 %11, 0
  br i1 %.not, label %12, label %15

12:                                               ; preds = %10, %6
  %13 = tail call ptr @PyDict_New() #8
  store ptr %13, ptr %3, align 8, !tbaa !143
  %14 = icmp eq ptr %13, null
  br i1 %14, label %_Py_XNewRef.exit, label %15

15:                                               ; preds = %12, %10, %2
  %16 = tail call fastcc ptr @func_get_annotation_dict(ptr noundef nonnull %0)
  %.not.i.i = icmp eq ptr %16, null
  br i1 %.not.i.i, label %_Py_XNewRef.exit, label %17

17:                                               ; preds = %15
  %18 = load i32, ptr %16, align 8, !tbaa !99
  %19 = icmp slt i32 %18, 0
  br i1 %19, label %_Py_XNewRef.exit, label %20

20:                                               ; preds = %17
  %21 = add nuw i32 %18, 1
  store i32 %21, ptr %16, align 8, !tbaa !99
  br label %_Py_XNewRef.exit

_Py_XNewRef.exit:                                 ; preds = %20, %17, %15, %12
  %.0 = phi ptr [ null, %12 ], [ null, %15 ], [ %16, %17 ], [ %16, %20 ]
  ret ptr %.0
}